Certificate:
    Data:
        Version: 3 (0x2)
        Serial Number:
            38:63:52:f7:72:76:16:c7:a0:85:7e:51:c4:ee:d4:d5
        Signature Algorithm: sha256WithRSAEncryption
        Issuer: CN=davidrgfoss
        Validity
            Not Before: Feb  3 22:35:30 2023 GMT
            Not After : May  8 22:35:30 2025 GMT
        Subject: CN=cliente1
        Subject Public Key Info:
            Public Key Algorithm: rsaEncryption
                RSA Public-Key: (2048 bit)
                Modulus:
                    00:bd:43:d0:46:09:99:f1:4e:d8:f7:57:2b:98:d5:
                    2d:cc:3c:55:6f:19:8b:76:82:c9:82:13:fc:93:d9:
                    64:d7:8a:a7:d5:95:d1:8a:9a:58:a8:e5:d1:d1:01:
                    47:dc:33:d6:a4:1a:42:3d:00:7a:91:06:8c:6d:6d:
                    1f:87:48:41:3e:19:8a:57:17:f1:71:c0:00:78:87:
                    fb:a9:77:a0:65:ef:82:a9:70:da:9a:ce:e2:95:2e:
                    60:03:d6:19:be:19:1b:c9:25:b4:38:9d:19:37:84:
                    7b:16:c3:ce:b2:e5:a0:1d:2c:f9:e5:9f:29:4f:33:
                    7b:dd:f3:e8:7d:25:a2:03:47:01:cd:08:2d:3e:25:
                    1d:0f:d1:3d:65:7a:ab:42:2d:15:ab:80:b4:63:6d:
                    dd:61:8b:bc:1c:18:01:17:09:e3:81:7f:40:d5:4f:
                    2c:f1:ec:10:14:73:7a:e3:10:fc:8a:c2:dc:ae:f1:
                    d7:45:62:d3:73:e0:6e:27:f3:5b:64:ce:db:86:6e:
                    db:77:d1:1d:b5:d2:6c:0b:ec:54:33:6e:07:aa:82:
                    dd:99:3e:20:e5:d7:f0:c9:2d:1e:38:4d:eb:e3:a4:
                    c1:6e:d8:1b:c0:d1:3c:f7:e6:51:74:84:4f:5a:27:
                    f1:0d:47:bc:68:6a:46:12:af:bd:83:af:69:84:ef:
                    65:7d
                Exponent: 65537 (0x10001)
        X509v3 extensions:
            X509v3 Basic Constraints: 
                CA:FALSE
            X509v3 Subject Key Identifier: 
                80:F8:17:F6:77:D3:47:63:9B:49:00:CF:D3:4D:E4:B2:BA:5B:FA:EA
            X509v3 Authority Key Identifier: 
                keyid:9D:AC:CC:61:77:4F:CF:96:7A:55:BA:B6:43:B9:A1:5A:2E:9F:43:6F
                DirName:/CN=davidrgfoss
                serial:7B:DF:42:3B:7D:AB:8B:15:A3:3A:4C:9B:9F:2A:F1:CB:D3:C4:D0:81

            X509v3 Extended Key Usage: 
                TLS Web Client Authentication
            X509v3 Key Usage: 
                Digital Signature
    Signature Algorithm: sha256WithRSAEncryption
         70:62:81:6d:48:e5:ce:f6:90:9a:78:30:83:f3:cd:60:88:6a:
         4f:9f:8c:fe:c6:67:46:2d:4a:9b:21:1b:f4:7e:69:81:94:67:
         d7:f4:ea:0a:d6:69:54:35:86:49:7e:07:55:05:aa:79:42:b2:
         f5:c1:96:a2:2b:06:9e:33:29:fa:95:90:11:bc:70:68:75:5e:
         3d:dd:4a:34:a8:f0:f3:02:b8:c6:46:99:11:4a:0b:93:e1:22:
         9a:95:0b:1e:3f:27:28:25:f0:e7:cf:ef:1e:59:97:3a:b2:e8:
         bf:60:27:5a:ca:a4:e2:82:17:d7:50:63:a6:91:4c:fb:8d:5d:
         50:2b:fa:d3:07:f8:72:7c:bd:44:8c:22:3a:ac:b9:e5:1f:7e:
         88:1b:46:da:6f:9d:6d:47:93:fe:a3:2f:ff:6a:23:ef:93:e5:
         af:5a:a8:f7:82:76:65:b9:fa:32:8f:a3:43:e4:ed:05:72:78:
         31:db:ec:08:12:cf:6b:7f:a5:09:e5:75:33:1d:c0:72:98:a8:
         f3:1c:f3:b7:b1:48:a5:54:c8:07:26:d3:aa:a9:f7:dc:77:0c:
         07:b2:82:a4:6e:9c:9c:ba:62:18:4a:1d:db:92:5d:f9:c8:b9:
         80:32:3c:11:dc:15:1c:85:61:bc:5a:e0:a0:fc:6b:19:ca:59:
         c9:52:cb:bd
-----BEGIN CERTIFICATE-----
MIIDVjCCAj6gAwIBAgIQOGNS93J2FseghX5RxO7U1TANBgkqhkiG9w0BAQsFADAW
MRQwEgYDVQQDDAtkYXZpZHJnZm9zczAeFw0yMzAyMDMyMjM1MzBaFw0yNTA1MDgy
MjM1MzBaMBMxETAPBgNVBAMMCGNsaWVudGUxMIIBIjANBgkqhkiG9w0BAQEFAAOC
AQ8AMIIBCgKCAQEAvUPQRgmZ8U7Y91crmNUtzDxVbxmLdoLJghP8k9lk14qn1ZXR
ippYqOXR0QFH3DPWpBpCPQB6kQaMbW0fh0hBPhmKVxfxccAAeIf7qXegZe+CqXDa
ms7ilS5gA9YZvhkbySW0OJ0ZN4R7FsPOsuWgHSz55Z8pTzN73fPofSWiA0cBzQgt
PiUdD9E9ZXqrQi0Vq4C0Y23dYYu8HBgBFwnjgX9A1U8s8ewQFHN64xD8isLcrvHX
RWLTc+BuJ/NbZM7bhm7bd9EdtdJsC+xUM24HqoLdmT4g5dfwyS0eOE3r46TBbtgb
wNE89+ZRdIRPWifxDUe8aGpGEq+9g69phO9lfQIDAQABo4GiMIGfMAkGA1UdEwQC
MAAwHQYDVR0OBBYEFID4F/Z300djm0kAz9NN5LK6W/rqMFEGA1UdIwRKMEiAFJ2s
zGF3T8+WelW6tkO5oVoun0NvoRqkGDAWMRQwEgYDVQQDDAtkYXZpZHJnZm9zc4IU
e99CO32rixWjOkybnyrxy9PE0IEwEwYDVR0lBAwwCgYIKwYBBQUHAwIwCwYDVR0P
BAQDAgeAMA0GCSqGSIb3DQEBCwUAA4IBAQBwYoFtSOXO9pCaeDCD881giGpPn4z+
xmdGLUqbIRv0fmmBlGfX9OoK1mlUNYZJfgdVBap5QrL1wZaiKwaeMyn6lZARvHBo
dV493Uo0qPDzArjGRpkRSguT4SKalQsePycoJfDnz+8eWZc6sui/YCdayqTighfX
UGOmkUz7jV1QK/rTB/hyfL1EjCI6rLnlH36IG0bab51tR5P+oy//aiPvk+WvWqj3
gnZlufoyj6ND5O0Fcngx2+wIEs9rf6UJ5XUzHcBymKjzHPO3sUilVMgHJtOqqffc
dwwHsoKkbpycumIYSh3bkl35yLmAMjwR3BUchWG8WuCg/GsZylnJUsu9
-----END CERTIFICATE-----
