Certificate:
    Data:
        Version: 3 (0x2)
        Serial Number:
            a5:0e:4a:41:db:97:22:f5:9a:0d:26:b0:25:73:b8:ea
        Signature Algorithm: sha256WithRSAEncryption
        Issuer: CN=davidrgfoss
        Validity
            Not Before: Feb  3 22:34:46 2023 GMT
            Not After : May  8 22:34:46 2025 GMT
        Subject: CN=server
        Subject Public Key Info:
            Public Key Algorithm: rsaEncryption
                RSA Public-Key: (2048 bit)
                Modulus:
                    00:ee:b8:da:ab:cc:da:a4:e0:ed:4a:22:8a:2f:e5:
                    28:ad:2c:75:af:f0:19:3e:c2:66:24:05:2b:50:db:
                    4f:a4:20:af:85:56:fe:17:0e:1a:1a:87:f8:a5:e7:
                    22:8f:44:47:99:0c:2b:06:37:cb:32:b5:78:e0:38:
                    d6:0c:7c:82:1f:52:03:e1:c2:31:53:89:2e:1c:6d:
                    13:61:4a:22:70:9a:fc:52:02:7b:7d:59:26:5a:d0:
                    ee:a6:8e:5a:d6:95:80:2e:fa:cc:98:6f:0a:21:40:
                    1b:15:4e:b7:47:02:a9:08:9d:1a:e9:e1:8e:0c:fc:
                    66:b7:e2:db:46:e8:2b:93:28:d6:04:50:53:9e:9d:
                    12:1b:d2:01:d6:63:23:ad:4d:6e:e1:92:a1:3c:6c:
                    52:4d:d6:ad:57:20:5e:6f:f5:7d:18:b0:ba:d8:1b:
                    4b:15:51:ee:ff:81:bc:a7:be:d1:e2:29:ab:30:f5:
                    5f:12:43:d7:bb:91:65:b2:86:11:c7:da:43:ae:e5:
                    65:8d:1f:22:b9:fb:bd:5a:f2:14:1b:a6:63:82:ee:
                    04:e1:b0:f5:2a:fa:c1:81:15:aa:e5:cc:8f:ee:a8:
                    55:16:c4:9f:48:46:8d:82:b7:82:f9:b9:cc:ff:3e:
                    06:11:b9:7d:9c:2d:f4:ec:79:d9:3d:39:6b:91:43:
                    16:41
                Exponent: 65537 (0x10001)
        X509v3 extensions:
            X509v3 Basic Constraints: 
                CA:FALSE
            X509v3 Subject Key Identifier: 
                E6:FB:B0:12:83:5A:7D:B1:31:CE:82:6C:67:45:29:08:07:9D:56:7E
            X509v3 Authority Key Identifier: 
                keyid:9D:AC:CC:61:77:4F:CF:96:7A:55:BA:B6:43:B9:A1:5A:2E:9F:43:6F
                DirName:/CN=davidrgfoss
                serial:7B:DF:42:3B:7D:AB:8B:15:A3:3A:4C:9B:9F:2A:F1:CB:D3:C4:D0:81

            X509v3 Extended Key Usage: 
                TLS Web Server Authentication
            X509v3 Key Usage: 
                Digital Signature, Key Encipherment
            X509v3 Subject Alternative Name: 
                DNS:server
    Signature Algorithm: sha256WithRSAEncryption
         73:79:a3:3e:2b:f1:34:00:0b:72:17:ee:4b:8c:43:ae:ac:57:
         cb:07:ce:12:19:19:8f:f1:a2:03:e1:39:e2:f2:a9:db:2d:83:
         09:36:85:99:44:72:8d:20:37:ee:40:e8:43:a9:c1:fe:78:a6:
         c7:34:ad:4b:e8:2e:c5:ce:0d:db:8a:52:60:a8:ca:5e:66:43:
         c5:8c:e7:49:95:0a:dc:f0:31:50:18:5f:23:3e:ee:f3:28:96:
         34:22:a2:d9:71:02:d1:42:9f:b6:ce:84:52:0f:26:18:3a:9d:
         b9:c2:63:ad:ad:fe:ac:bb:15:e9:e8:1b:e3:ab:9d:76:8e:60:
         8a:73:64:60:e9:9c:b6:90:52:71:12:f7:f2:f9:c4:1b:be:f0:
         b3:a0:e7:35:cc:8c:a2:b3:8e:de:f2:e7:35:f1:0d:aa:9d:cc:
         23:e3:8e:6c:57:90:28:f8:15:0b:8a:49:34:83:ae:e3:1e:fe:
         99:be:07:9c:f8:07:9b:b1:b9:6b:55:92:3c:b3:b1:da:77:6f:
         15:0f:c1:71:0b:2d:0b:cd:f0:ea:7f:6d:c0:cb:ae:09:3d:91:
         1d:33:c0:2d:df:75:21:6f:bd:fe:3e:82:15:10:20:3e:7e:35:
         bd:2c:9f:27:76:88:62:5a:1d:34:e4:65:99:c2:f2:b7:3e:6e:
         62:94:8d:8e
-----BEGIN CERTIFICATE-----
MIIDaDCCAlCgAwIBAgIRAKUOSkHblyL1mg0msCVzuOowDQYJKoZIhvcNAQELBQAw
FjEUMBIGA1UEAwwLZGF2aWRyZ2Zvc3MwHhcNMjMwMjAzMjIzNDQ2WhcNMjUwNTA4
MjIzNDQ2WjARMQ8wDQYDVQQDDAZzZXJ2ZXIwggEiMA0GCSqGSIb3DQEBAQUAA4IB
DwAwggEKAoIBAQDuuNqrzNqk4O1KIoov5SitLHWv8Bk+wmYkBStQ20+kIK+FVv4X
Dhoah/il5yKPREeZDCsGN8sytXjgONYMfIIfUgPhwjFTiS4cbRNhSiJwmvxSAnt9
WSZa0O6mjlrWlYAu+syYbwohQBsVTrdHAqkInRrp4Y4M/Ga34ttG6CuTKNYEUFOe
nRIb0gHWYyOtTW7hkqE8bFJN1q1XIF5v9X0YsLrYG0sVUe7/gbynvtHiKasw9V8S
Q9e7kWWyhhHH2kOu5WWNHyK5+71a8hQbpmOC7gThsPUq+sGBFarlzI/uqFUWxJ9I
Ro2Ct4L5ucz/PgYRuX2cLfTsedk9OWuRQxZBAgMBAAGjgbUwgbIwCQYDVR0TBAIw
ADAdBgNVHQ4EFgQU5vuwEoNafbExzoJsZ0UpCAedVn4wUQYDVR0jBEowSIAUnazM
YXdPz5Z6Vbq2Q7mhWi6fQ2+hGqQYMBYxFDASBgNVBAMMC2Rhdmlkcmdmb3NzghR7
30I7fauLFaM6TJufKvHL08TQgTATBgNVHSUEDDAKBggrBgEFBQcDATALBgNVHQ8E
BAMCBaAwEQYDVR0RBAowCIIGc2VydmVyMA0GCSqGSIb3DQEBCwUAA4IBAQBzeaM+
K/E0AAtyF+5LjEOurFfLB84SGRmP8aID4Tni8qnbLYMJNoWZRHKNIDfuQOhDqcH+
eKbHNK1L6C7Fzg3bilJgqMpeZkPFjOdJlQrc8DFQGF8jPu7zKJY0IqLZcQLRQp+2
zoRSDyYYOp25wmOtrf6suxXp6Bvjq512jmCKc2Rg6Zy2kFJxEvfy+cQbvvCzoOc1
zIyis47e8uc18Q2qncwj445sV5Ao+BULikk0g67jHv6Zvgec+AebsblrVZI8s7Ha
d28VD8FxCy0LzfDqf23Ay64JPZEdM8At33Uhb73+PoIVECA+fjW9LJ8ndohiWh00
5GWZwvK3Pm5ilI2O
-----END CERTIFICATE-----
