Certificate:
    Data:
        Version: 3 (0x2)
        Serial Number:
            3d:2a:d1:79:ab:a4:15:13:45:8c:cf:e9:b0:eb:2c:47
        Signature Algorithm: sha256WithRSAEncryption
        Issuer: CN=davidrgfoss
        Validity
            Not Before: Jan 26 23:27:38 2023 GMT
            Not After : Apr 30 23:27:38 2025 GMT
        Subject: CN=server
        Subject Public Key Info:
            Public Key Algorithm: rsaEncryption
                RSA Public-Key: (2048 bit)
                Modulus:
                    00:a8:45:a1:4c:b9:b1:5f:0c:59:ef:73:a9:ff:a9:
                    43:f8:6a:04:f6:0e:00:6f:1d:8a:26:3e:9e:9f:70:
                    9c:09:cb:63:b8:bd:9e:27:2d:6d:49:7e:c7:3e:df:
                    a6:ea:58:0f:e7:b9:ef:5a:0d:5b:5a:c1:6d:f3:78:
                    67:a9:85:40:c6:a4:f2:69:6d:0f:c7:0a:1c:9f:85:
                    2f:34:2f:e0:24:70:e9:97:99:94:2d:34:eb:57:c3:
                    a3:db:6d:ff:3d:64:b2:7d:3a:91:c8:3b:f2:21:86:
                    ad:76:dc:93:68:c8:ef:ea:f2:97:d3:d0:24:f4:10:
                    aa:a8:24:68:19:6d:e1:82:07:0b:9e:e0:82:d7:20:
                    11:2f:e2:26:16:84:2f:f5:86:d5:8e:78:d8:c6:9d:
                    17:2c:38:3b:a2:86:d5:80:ac:e6:2b:bf:7a:74:3b:
                    2c:11:d3:f7:5f:a2:50:85:ce:01:89:e6:8d:3b:62:
                    f0:ef:a7:69:dc:d1:87:85:68:cf:56:28:1f:a5:a7:
                    36:c6:f4:0e:38:ab:7f:7a:cd:6d:63:80:8a:6c:ba:
                    db:bd:f9:71:34:f5:95:96:18:fa:63:fe:df:b9:39:
                    74:64:b6:d6:52:9b:be:f0:ad:77:72:c0:11:83:f2:
                    26:b9:eb:06:98:75:eb:65:a9:35:e0:fa:93:58:02:
                    78:a7
                Exponent: 65537 (0x10001)
        X509v3 extensions:
            X509v3 Basic Constraints: 
                CA:FALSE
            X509v3 Subject Key Identifier: 
                42:22:BF:5D:97:9D:AD:B7:32:81:E9:AD:CC:48:65:EF:00:BD:01:86
            X509v3 Authority Key Identifier: 
                keyid:5F:05:0C:0A:0B:E4:F6:3A:26:D3:EC:94:D0:8A:10:21:56:AA:2E:6E
                DirName:/CN=davidrgfoss
                serial:1E:7D:BB:03:C6:FB:10:CD:47:72:7D:AD:6F:93:9A:B9:9F:93:37:01

            X509v3 Extended Key Usage: 
                TLS Web Server Authentication
            X509v3 Key Usage: 
                Digital Signature, Key Encipherment
            X509v3 Subject Alternative Name: 
                DNS:server
    Signature Algorithm: sha256WithRSAEncryption
         2e:3f:8b:b5:18:2d:61:10:7c:78:41:6d:34:84:f9:c2:42:68:
         5f:cc:e5:71:c7:44:55:e7:25:4f:c5:8c:78:ed:e2:76:11:93:
         ba:2a:43:30:2e:b9:5a:4d:39:6d:4e:cd:6e:e2:23:15:d9:22:
         d2:d9:1b:40:ce:de:c2:34:31:85:d2:b1:6c:fc:55:3a:8c:5f:
         38:e2:4b:48:07:48:53:1c:80:36:e3:6d:70:f6:a0:16:18:62:
         66:c2:29:1f:ea:a3:64:d8:c4:26:af:0f:09:ca:87:6c:05:f2:
         b1:23:6d:be:d5:72:3d:ad:95:44:b6:fa:74:f8:1f:bc:7b:ab:
         80:1a:a2:9b:6c:42:71:9a:bd:c5:f3:bc:67:15:da:11:f4:ae:
         39:c4:bf:3d:ba:22:34:c3:e7:a8:7e:b2:a5:cb:10:f2:29:01:
         ad:e8:1f:26:9e:e3:0a:99:1b:08:d2:34:34:60:90:3b:67:2c:
         a5:fb:a2:bb:7c:e5:4b:8d:39:8f:44:ef:35:e1:fb:ea:dc:93:
         e8:51:40:a8:15:da:d1:94:05:95:4c:a5:57:4c:6b:ff:8f:ad:
         c9:a4:66:77:5c:16:be:97:93:15:93:51:41:82:28:0b:19:16:
         de:26:fc:b3:69:d2:2f:ab:0f:5c:e4:83:94:ef:e4:fa:29:50:
         90:05:9d:ec
-----BEGIN CERTIFICATE-----
MIIDZzCCAk+gAwIBAgIQPSrReaukFRNFjM/psOssRzANBgkqhkiG9w0BAQsFADAW
MRQwEgYDVQQDDAtkYXZpZHJnZm9zczAeFw0yMzAxMjYyMzI3MzhaFw0yNTA0MzAy
MzI3MzhaMBExDzANBgNVBAMMBnNlcnZlcjCCASIwDQYJKoZIhvcNAQEBBQADggEP
ADCCAQoCggEBAKhFoUy5sV8MWe9zqf+pQ/hqBPYOAG8diiY+np9wnAnLY7i9nict
bUl+xz7fpupYD+e571oNW1rBbfN4Z6mFQMak8mltD8cKHJ+FLzQv4CRw6ZeZlC00
61fDo9tt/z1ksn06kcg78iGGrXbck2jI7+ryl9PQJPQQqqgkaBlt4YIHC57ggtcg
ES/iJhaEL/WG1Y542MadFyw4O6KG1YCs5iu/enQ7LBHT91+iUIXOAYnmjTti8O+n
adzRh4Voz1YoH6WnNsb0Djirf3rNbWOAimy62735cTT1lZYY+mP+37k5dGS21lKb
vvCtd3LAEYPyJrnrBph162WpNeD6k1gCeKcCAwEAAaOBtTCBsjAJBgNVHRMEAjAA
MB0GA1UdDgQWBBRCIr9dl52ttzKB6a3MSGXvAL0BhjBRBgNVHSMESjBIgBRfBQwK
C+T2OibT7JTQihAhVqoubqEapBgwFjEUMBIGA1UEAwwLZGF2aWRyZ2Zvc3OCFB59
uwPG+xDNR3J9rW+TmrmfkzcBMBMGA1UdJQQMMAoGCCsGAQUFBwMBMAsGA1UdDwQE
AwIFoDARBgNVHREECjAIggZzZXJ2ZXIwDQYJKoZIhvcNAQELBQADggEBAC4/i7UY
LWEQfHhBbTSE+cJCaF/M5XHHRFXnJU/FjHjt4nYRk7oqQzAuuVpNOW1OzW7iIxXZ
ItLZG0DO3sI0MYXSsWz8VTqMXzjiS0gHSFMcgDbjbXD2oBYYYmbCKR/qo2TYxCav
DwnKh2wF8rEjbb7Vcj2tlUS2+nT4H7x7q4AaoptsQnGavcXzvGcV2hH0rjnEvz26
IjTD56h+sqXLEPIpAa3oHyae4wqZGwjSNDRgkDtnLKX7ort85UuNOY9E7zXh++rc
k+hRQKgV2tGUBZVMpVdMa/+PrcmkZndcFr6XkxWTUUGCKAsZFt4m/LNp0i+rD1zk
g5Tv5PopUJAFnew=
-----END CERTIFICATE-----
