Certificate:
    Data:
        Version: 3 (0x2)
        Serial Number:
            de:d5:c0:30:4d:eb:f2:e3:78:75:c3:f8:9d:8d:67:26
        Signature Algorithm: sha256WithRSAEncryption
        Issuer: CN=davidrgfoss
        Validity
            Not Before: Jan 26 23:28:31 2023 GMT
            Not After : Apr 30 23:28:31 2025 GMT
        Subject: CN=client
        Subject Public Key Info:
            Public Key Algorithm: rsaEncryption
                RSA Public-Key: (2048 bit)
                Modulus:
                    00:bb:ba:9a:08:03:3d:9a:85:ea:5f:32:3f:93:1e:
                    df:c8:55:c2:9e:52:66:4f:1e:be:0c:31:51:7b:ab:
                    af:20:3f:3b:92:71:93:ec:ff:76:27:a3:eb:f4:ab:
                    3b:6b:1f:7f:79:2f:af:04:15:cb:bf:c0:b0:70:e9:
                    dd:b1:e8:10:08:ce:2d:f5:33:9f:9a:49:71:62:1c:
                    b4:e6:5f:b8:08:22:5f:65:c4:f0:76:e7:78:81:7a:
                    ef:89:81:f7:48:10:77:10:5d:b7:75:a0:e4:95:df:
                    65:7f:2c:5c:87:12:af:96:02:e2:7a:0f:63:51:4f:
                    0b:76:c0:0e:2b:84:31:05:8b:7d:79:37:58:0a:f3:
                    50:f2:33:a8:7d:01:37:97:94:3e:8e:63:41:5e:45:
                    91:53:75:9a:b9:f4:03:0c:28:a2:27:9a:1b:ab:6b:
                    ee:fe:bc:5e:1b:84:8c:3a:7b:f3:9a:46:09:34:dc:
                    de:ea:33:ce:81:16:f0:d6:79:be:19:ae:9a:e5:d0:
                    53:bd:23:83:30:ae:f5:5d:dd:e5:38:a6:95:e8:80:
                    7c:f6:fc:14:40:27:6e:21:d8:81:df:ac:7f:14:ed:
                    ea:02:8b:04:60:b9:dd:aa:e3:f9:b7:0b:44:41:ce:
                    90:c6:8e:6a:8e:9d:36:67:9e:a5:81:09:b6:3e:ee:
                    61:a3
                Exponent: 65537 (0x10001)
        X509v3 extensions:
            X509v3 Basic Constraints: 
                CA:FALSE
            X509v3 Subject Key Identifier: 
                1F:AA:7E:AC:46:08:15:7C:78:85:99:62:6A:44:DC:73:2D:FF:2F:C0
            X509v3 Authority Key Identifier: 
                keyid:5F:05:0C:0A:0B:E4:F6:3A:26:D3:EC:94:D0:8A:10:21:56:AA:2E:6E
                DirName:/CN=davidrgfoss
                serial:1E:7D:BB:03:C6:FB:10:CD:47:72:7D:AD:6F:93:9A:B9:9F:93:37:01

            X509v3 Extended Key Usage: 
                TLS Web Client Authentication
            X509v3 Key Usage: 
                Digital Signature
    Signature Algorithm: sha256WithRSAEncryption
         4b:56:f9:9d:cc:8b:b6:13:2f:84:bd:37:84:55:35:2e:c4:b6:
         a3:ea:fb:aa:f2:ea:bb:cf:66:41:5e:30:a8:cb:21:b3:9b:b6:
         e9:d1:60:03:ee:be:39:41:47:f3:d1:8b:8a:d5:a8:30:a9:0d:
         f6:ed:79:6e:99:e1:d6:44:b9:0c:ac:19:ea:f8:68:8e:d8:98:
         97:1f:a2:f5:da:73:14:53:cf:24:28:3d:41:d2:f0:b6:f3:d5:
         12:0b:96:52:6b:4c:e8:ab:db:2a:f5:8a:ea:1e:82:19:c1:2e:
         40:4b:3f:38:da:32:ba:ee:21:ae:89:6e:a9:4f:21:1c:d7:99:
         30:e4:57:cf:e8:5e:ec:32:c8:eb:99:19:b5:68:c1:07:eb:c3:
         07:7e:f7:98:2a:fb:ea:b1:60:39:ac:40:4f:a8:d9:9b:98:df:
         14:16:45:2b:a9:56:5c:75:95:42:9e:59:3b:98:0a:0c:c5:ec:
         ad:9e:8c:3b:79:5e:c2:2c:7d:83:ab:d5:88:3f:17:90:f1:55:
         e7:09:40:88:ea:0c:45:51:81:c8:c0:df:33:df:6f:f6:ac:93:
         6a:0e:76:74:c2:50:be:d0:2e:5a:53:5b:7b:83:2e:f9:a5:4c:
         e2:63:82:b4:be:db:8b:03:02:40:e8:15:df:3d:79:d2:b4:67:
         6d:1e:39:a3
-----BEGIN CERTIFICATE-----
MIIDVTCCAj2gAwIBAgIRAN7VwDBN6/LjeHXD+J2NZyYwDQYJKoZIhvcNAQELBQAw
FjEUMBIGA1UEAwwLZGF2aWRyZ2Zvc3MwHhcNMjMwMTI2MjMyODMxWhcNMjUwNDMw
MjMyODMxWjARMQ8wDQYDVQQDDAZjbGllbnQwggEiMA0GCSqGSIb3DQEBAQUAA4IB
DwAwggEKAoIBAQC7upoIAz2ahepfMj+THt/IVcKeUmZPHr4MMVF7q68gPzuScZPs
/3Yno+v0qztrH395L68EFcu/wLBw6d2x6BAIzi31M5+aSXFiHLTmX7gIIl9lxPB2
53iBeu+JgfdIEHcQXbd1oOSV32V/LFyHEq+WAuJ6D2NRTwt2wA4rhDEFi315N1gK
81DyM6h9ATeXlD6OY0FeRZFTdZq59AMMKKInmhura+7+vF4bhIw6e/OaRgk03N7q
M86BFvDWeb4Zrprl0FO9I4MwrvVd3eU4ppXogHz2/BRAJ24h2IHfrH8U7eoCiwRg
ud2q4/m3C0RBzpDGjmqOnTZnnqWBCbY+7mGjAgMBAAGjgaIwgZ8wCQYDVR0TBAIw
ADAdBgNVHQ4EFgQUH6p+rEYIFXx4hZliakTccy3/L8AwUQYDVR0jBEowSIAUXwUM
Cgvk9jom0+yU0IoQIVaqLm6hGqQYMBYxFDASBgNVBAMMC2Rhdmlkcmdmb3NzghQe
fbsDxvsQzUdyfa1vk5q5n5M3ATATBgNVHSUEDDAKBggrBgEFBQcDAjALBgNVHQ8E
BAMCB4AwDQYJKoZIhvcNAQELBQADggEBAEtW+Z3Mi7YTL4S9N4RVNS7EtqPq+6ry
6rvPZkFeMKjLIbObtunRYAPuvjlBR/PRi4rVqDCpDfbteW6Z4dZEuQysGer4aI7Y
mJcfovXacxRTzyQoPUHS8Lbz1RILllJrTOir2yr1iuoeghnBLkBLPzjaMrruIa6J
bqlPIRzXmTDkV8/oXuwyyOuZGbVowQfrwwd+95gq++qxYDmsQE+o2ZuY3xQWRSup
Vlx1lUKeWTuYCgzF7K2ejDt5XsIsfYOr1Yg/F5DxVecJQIjqDEVRgcjA3zPfb/as
k2oOdnTCUL7QLlpTW3uDLvmlTOJjgrS+24sDAkDoFd89edK0Z20eOaM=
-----END CERTIFICATE-----
